ccopy_reg
_reconstructor
p1
(clightgbm.basic
Booster
p2
c__builtin__
object
p3
NtRp4
(dp5
S'_Booster__is_predicted_cur_iter'
p6
(lp7
sS'_Booster__inner_predict_buffer'
p8
(lp9
sS'_Booster__attr'
p10
(dp11
sS'_Booster__higher_better_inner_eval'
p12
(lp13
I00
asS'best_iteration'
p14
I0
sS'_Booster__init_predictor'
p15
NsS'best_score'
p16
ccollections
defaultdict
p17
(c__builtin__
dict
p18
tRp19
S'training'
p20
(dp21
Vbinary_logloss
p22
cnumpy.core.multiarray
scalar
p23
(cnumpy
dtype
p24
(S'f8'
I0
I1
tRp25
(I3
S'<'
NNNI-1
I-1
I0
tbS'j\xc9\xb3\x19\x88\xb0\xd7?'
tRp26
sssS'handle'
p27
Vtree\u000aversion=v2\u000anum_class=1\u000anum_tree_per_iteration=1\u000alabel_index=0\u000amax_feature_idx=3\u000aobjective=binary sigmoid:1\u000afeature_names=feature_0 feature_1 feature_2 feature_3\u000afeature_infos=[-1.8396275133086712:2.3048673813900509] [-2.3788960166206912:3.0200169289014429] [-1.5639872006452797:1.7044736769635538] [-1.4427643551418259:1.7559741689601436]\u000atree_sizes=260 336 337 417 337 412 413 338 412 338\u000a\u000aTree=0\u000anum_leaves=2\u000anum_cat=0\u000asplit_feature=2\u000asplit_gain=85.0694\u000athreshold=-0.33114669417879\u000adecision_type=2\u000aleft_child=-1\u000aright_child=-2\u000aleaf_value=-0.094444444444444414 0.10000000000000001\u000aleaf_count=36 60\u000ainternal_value=0\u000ainternal_count=96\u000ashrinkage=0.05\u000a\u000a\u000aTree=1\u000anum_leaves=3\u000anum_cat=0\u000asplit_feature=2 2\u000asplit_gain=77.2775 0.102988\u000athreshold=-1.1052558494019347 0.41429175159164583\u000adecision_type=2 2\u000aleft_child=-1 -2\u000aright_child=1 -3\u000aleaf_value=-0.095493916645295482 0.086619517783171257 0.095241872246060344\u000aleaf_count=34 21 41\u000ainternal_value=0 1.84643\u000ainternal_count=96 62\u000ashrinkage=0.05\u000a\u000a\u000aTree=2\u000anum_leaves=3\u000anum_cat=0\u000asplit_feature=2 2\u000asplit_gain=70.2333 0.000130691\u000athreshold=-0.33114669417879 0.47163317049706377\u000adecision_type=2 2\u000aleft_child=-1 -2\u000aright_child=1 -3\u000aleaf_value=-0.086210289750505598 0.091439436026091558 0.091131780775723592\u000aleaf_count=36 22 38\u000ainternal_value=0 1.82489\u000ainternal_count=96 60\u000ashrinkage=0.05\u000a\u000a\u000aTree=3\u000anum_leaves=4\u000anum_cat=0\u000asplit_feature=3 0 0\u000asplit_gain=64.6787 0.0739045 7.77974e-07\u000athreshold=-0.97628165371028863 -1.0000000180025095e-35 0.7811560230449327\u000adecision_type=2 2 2\u000aleft_child=-1 -2 -3\u000aright_child=1 2 -4\u000aleaf_value=-0.088161538976047699 0.080229014766041939 0.087608323626241796 0.087580484830538749\u000aleaf_count=34 21 21 20\u000ainternal_value=0 1.70195 1.75189\u000ainternal_count=96 62 41\u000ashrinkage=0.05\u000a\u000a\u000aTree=4\u000anum_leaves=3\u000anum_cat=0\u000asplit_feature=3 2\u000asplit_gain=59.1986 0.0726418\u000athreshold=-0.97628165371028863 0.41429175159164583\u000adecision_type=2 2\u000aleft_child=-1 -2\u000aright_child=1 -3\u000aleaf_value=-0.084942795403600224 0.077089725514811747 0.084436436768907289\u000aleaf_count=34 21 41\u000ainternal_value=0 1.6388\u000ainternal_count=96 62\u000ashrinkage=0.05\u000a\u000a\u000aTree=5\u000anum_leaves=4\u000anum_cat=0\u000asplit_feature=3 3 2\u000asplit_gain=52.2321 0.0757691 2.3408e-05\u000athreshold=-0.97628165371028863 0.22324529282794983 0.81568168392957274\u000adecision_type=2 2 2\u000aleft_child=-1 -2 -3\u000aright_child=1 2 -4\u000aleaf_value=-0.082328977741067719 0.074226370013925652 0.081765068542435926 0.081614756796831001\u000aleaf_count=31 21 24 20\u000ainternal_value=0 1.5854 1.63394\u000ainternal_count=96 65 44\u000ashrinkage=0.05\u000a\u000a\u000aTree=6\u000anum_leaves=4\u000anum_cat=0\u000asplit_feature=2 2 2\u000asplit_gain=48.2491 0.000742644 4.17789e-06\u000athreshold=-0.33114669417879 0.41429175159164583 0.81568168392957274\u000adecision_type=2 2 2\u000aleft_child=-1 -2 -3\u000aright_child=1 2 -4\u000aleaf_value=-0.074789280931922261 0.079915866524205334 0.079203210458306889 0.079137015419427914\u000aleaf_count=33 22 21 20\u000ainternal_value=0 1.58864 1.58342\u000ainternal_count=96 63 41\u000ashrinkage=0.05\u000a\u000a\u000aTree=7\u000anum_leaves=3\u000anum_cat=0\u000asplit_feature=3 1\u000asplit_gain=44.5762 0.0751388\u000athreshold=-0.97628165371028863 -0.2418263090181802\u000adecision_type=2 2\u000aleft_child=-1 -2\u000aright_child=1 -3\u000aleaf_value=-0.077633081453933314 0.077929216105045884 0.070799315338673383\u000aleaf_count=31 35 30\u000ainternal_value=0 1.49286\u000ainternal_count=96 65\u000ashrinkage=0.05\u000a\u000a\u000aTree=8\u000anum_leaves=4\u000anum_cat=0\u000asplit_feature=2 2 3\u000asplit_gain=41.3725 0.000393334 3.38841e-07\u000athreshold=-0.33114669417879 0.41429175159164583 0.88964915201586026\u000adecision_type=2 2 2\u000aleft_child=-1 -2 -3\u000aright_child=1 2 -4\u000aleaf_value=-0.070655660482095109 0.07558895488803373 0.075025031574040613 0.075044317560104407\u000aleaf_count=33 22 21 20\u000ainternal_value=0 1.50458 1.50069\u000ainternal_count=96 63 41\u000ashrinkage=0.05\u000a\u000a\u000aTree=9\u000anum_leaves=3\u000anum_cat=0\u000asplit_feature=3 1\u000asplit_gain=38.3705 0.0735176\u000athreshold=-0.97628165371028863 -0.2418263090181802\u000adecision_type=2 2\u000aleft_child=-1 -2\u000aright_child=1 -3\u000aleaf_value=-0.073828415418165386 0.074194298676070358 0.066972272470574454\u000aleaf_count=31 35 30\u000ainternal_value=0 1.41724\u000ainternal_count=96 65\u000ashrinkage=0.05\u000a\u000a\u000a\u000afeature importances:\u000afeature_2=12\u000afeature_3=7\u000afeature_0=2\u000afeature_1=2\u000a
p28
sS'_Booster__num_inner_eval'
p29
I1
sS'_Booster__set_objective_to_none'
p30
I00
sS'network'
p31
I00
sS'_Booster__train_data_name'
p32
g20
sS'_Booster__num_dataset'
p33
I0
sS'pandas_categorical'
p34
NsS'_Booster__need_reload_eval_info'
p35
I00
sS'name_valid_sets'
p36
(lp37
sS'_Booster__num_class'
p38
I1
sS'_Booster__name_inner_eval'
p39
(lp40
g22
asb.